target datalayout = "e-m:e-p270:32:32-p271:32:32-p272:64:64-i64:64-i128:128-f80:128-n8:16:32:64-S128"
target triple = "x86_64-pc-linux-gnu"

%"class.std::__cxx11::basic_string" = type { %"struct.std::__cxx11::basic_string<char>::_Alloc_hider", i64, %union.anon }
%"struct.std::__cxx11::basic_string<char>::_Alloc_hider" = type { ptr }
%union.anon = type { i64, [8 x i8] }
%"class.std::vector" = type { %"struct.std::_Vector_base" }
%"struct.std::_Vector_base" = type { %"struct.std::_Vector_base<std::__cxx11::basic_string<char>, std::allocator<std::__cxx11::basic_string<char>>>::_Vector_impl" }
%"struct.std::_Vector_base<std::__cxx11::basic_string<char>, std::allocator<std::__cxx11::basic_string<char>>>::_Vector_impl" = type { %"struct.std::_Vector_base<std::__cxx11::basic_string<char>, std::allocator<std::__cxx11::basic_string<char>>>::_Vector_impl_data" }
%"struct.std::_Vector_base<std::__cxx11::basic_string<char>, std::allocator<std::__cxx11::basic_string<char>>>::_Vector_impl_data" = type { ptr, ptr, ptr }
%class.cmListFileBacktrace = type { %class.cmConstStack }
%class.cmConstStack = type { %"class.std::shared_ptr" }
%"class.std::shared_ptr" = type { %"class.std::__shared_ptr" }
%"class.std::__shared_ptr" = type { ptr, %"class.std::__shared_count" }
%"class.std::__shared_count" = type { ptr }
%class.cmInstallScriptGenerator = type <{ %class.cmInstallGenerator, %"class.std::__cxx11::basic_string", i8, [7 x i8], ptr, i8, [7 x i8] }>
%class.cmInstallGenerator = type { %class.cmScriptGenerator.base, %"class.std::__cxx11::basic_string", %"class.std::__cxx11::basic_string", i32, i8, i8, %class.cmListFileBacktrace }
%class.cmScriptGenerator.base = type <{ ptr, %"class.std::__cxx11::basic_string", %"class.std::vector", %"class.std::__cxx11::basic_string", ptr, i8 }>
%class.cmScriptGenerator = type <{ ptr, %"class.std::__cxx11::basic_string", %"class.std::vector", %"class.std::__cxx11::basic_string", ptr, i8, [7 x i8] }>
%class.cmScriptGeneratorIndent = type { i32 }

@.str.2 = private unnamed_addr constant [2 x i8] c"\0A\00", align 1
@.str.3 = private unnamed_addr constant [10 x i8] c"include(\22\00", align 1
@.str.4 = private unnamed_addr constant [4 x i8] c"\22)\0A\00", align 1
@.str.5 = private unnamed_addr constant [2 x i8] c" \00", align 1

; Function Attrs: mustprogress uwtable
define linkonce_odr dso_local void @_ZNK23cmScriptGeneratorIndent5WriteERSo(ptr noundef nonnull align 4 dereferenceable(4) %0, ptr noundef nonnull align 8 dereferenceable(8) %1) #4 comdat align 2 {
  %3 = alloca ptr, align 8
  %4 = alloca ptr, align 8
  %5 = alloca i32, align 4
  store ptr %0, ptr %3, align 8
  store ptr %1, ptr %4, align 8
  %6 = load ptr, ptr %3, align 8
  store i32 0, ptr %5, align 4
  br label %7

7:                                                ; preds = %15, %2
  %8 = load i32, ptr %5, align 4
  %9 = getelementptr inbounds %class.cmScriptGeneratorIndent, ptr %6, i32 0, i32 0
  %10 = load i32, ptr %9, align 4
  %11 = icmp slt i32 %8, %10
  br i1 %11, label %12, label %18

12:                                               ; preds = %7
  %13 = load ptr, ptr %4, align 8
  %14 = call noundef nonnull align 8 dereferenceable(8) ptr @_ZStlsISt11char_traitsIcEERSt13basic_ostreamIcT_ES5_PKc(ptr noundef nonnull align 8 dereferenceable(8) %13, ptr noundef @.str.5)
  br label %15

15:                                               ; preds = %12
  %16 = load i32, ptr %5, align 4
  %17 = add nsw i32 %16, 1
  store i32 %17, ptr %5, align 4
  br label %7, !llvm.loop !5

18:                                               ; preds = %7
  ret void
}

; Function Attrs: mustprogress uwtable
define linkonce_odr dso_local noundef nonnull align 8 dereferenceable(8) ptr @_ZlsRSo23cmScriptGeneratorIndent(ptr noundef nonnull align 8 dereferenceable(8) %0, i32 %1) #4 comdat {
  %3 = alloca %class.cmScriptGeneratorIndent, align 4
  %4 = alloca ptr, align 8
  %5 = getelementptr inbounds %class.cmScriptGeneratorIndent, ptr %3, i32 0, i32 0
  store i32 %1, ptr %5, align 4
  store ptr %0, ptr %4, align 8
  %6 = load ptr, ptr %4, align 8
  call void @_ZNK23cmScriptGeneratorIndent5WriteERSo(ptr noundef nonnull align 4 dereferenceable(4) %3, ptr noundef nonnull align 8 dereferenceable(8) %6)
  %7 = load ptr, ptr %4, align 8
  ret ptr %7
}

; Function Attrs: mustprogress uwtable
define dso_local void @_ZNK24cmInstallScriptGenerator20AddScriptInstallRuleERSo23cmScriptGeneratorIndentRKNSt7__cxx1112basic_stringIcSt11char_traitsIcESaIcEEE(ptr noundef nonnull align 8 dereferenceable(249) %0, ptr noundef nonnull align 8 dereferenceable(8) %1, i32 %2, ptr noundef nonnull align 8 dereferenceable(32) %3) #4 align 2 {
  %5 = alloca %class.cmScriptGeneratorIndent, align 4
  %6 = alloca ptr, align 8
  %7 = alloca ptr, align 8
  %8 = alloca ptr, align 8
  %9 = alloca %class.cmScriptGeneratorIndent, align 4
  %10 = alloca %class.cmScriptGeneratorIndent, align 4
  %11 = getelementptr inbounds %class.cmScriptGeneratorIndent, ptr %5, i32 0, i32 0
  store i32 %2, ptr %11, align 4
  store ptr %0, ptr %6, align 8
  store ptr %1, ptr %7, align 8
  store ptr %3, ptr %8, align 8
  %12 = load ptr, ptr %6, align 8
  %13 = getelementptr inbounds %class.cmInstallScriptGenerator, ptr %12, i32 0, i32 2
  %14 = load i8, ptr %13, align 8
  %15 = trunc i8 %14 to i1
  br i1 %15, label %16, label %24

16:                                               ; preds = %4
  %17 = load ptr, ptr %7, align 8
  call void @llvm.memcpy.p0.p0.i64(ptr align 4 %9, ptr align 4 %5, i64 4, i1 false)
  %18 = getelementptr inbounds %class.cmScriptGeneratorIndent, ptr %9, i32 0, i32 0
  %19 = load i32, ptr %18, align 4
  %20 = call noundef nonnull align 8 dereferenceable(8) ptr @_ZlsRSo23cmScriptGeneratorIndent(ptr noundef nonnull align 8 dereferenceable(8) %17, i32 %19)
  %21 = load ptr, ptr %8, align 8
  %22 = call noundef nonnull align 8 dereferenceable(8) ptr @_ZStlsIcSt11char_traitsIcESaIcEERSt13basic_ostreamIT_T0_ES7_RKNSt7__cxx1112basic_stringIS4_S5_T1_EE(ptr noundef nonnull align 8 dereferenceable(8) %20, ptr noundef nonnull align 8 dereferenceable(32) %21)
  %23 = call noundef nonnull align 8 dereferenceable(8) ptr @_ZStlsISt11char_traitsIcEERSt13basic_ostreamIcT_ES5_PKc(ptr noundef nonnull align 8 dereferenceable(8) %22, ptr noundef @.str.2)
  br label %33

24:                                               ; preds = %4
  %25 = load ptr, ptr %7, align 8
  call void @llvm.memcpy.p0.p0.i64(ptr align 4 %10, ptr align 4 %5, i64 4, i1 false)
  %26 = getelementptr inbounds %class.cmScriptGeneratorIndent, ptr %10, i32 0, i32 0
  %27 = load i32, ptr %26, align 4
  %28 = call noundef nonnull align 8 dereferenceable(8) ptr @_ZlsRSo23cmScriptGeneratorIndent(ptr noundef nonnull align 8 dereferenceable(8) %25, i32 %27)
  %29 = call noundef nonnull align 8 dereferenceable(8) ptr @_ZStlsISt11char_traitsIcEERSt13basic_ostreamIcT_ES5_PKc(ptr noundef nonnull align 8 dereferenceable(8) %28, ptr noundef @.str.3)
  %30 = load ptr, ptr %8, align 8
  %31 = call noundef nonnull align 8 dereferenceable(8) ptr @_ZStlsIcSt11char_traitsIcESaIcEERSt13basic_ostreamIT_T0_ES7_RKNSt7__cxx1112basic_stringIS4_S5_T1_EE(ptr noundef nonnull align 8 dereferenceable(8) %29, ptr noundef nonnull align 8 dereferenceable(32) %30)
  %32 = call noundef nonnull align 8 dereferenceable(8) ptr @_ZStlsISt11char_traitsIcEERSt13basic_ostreamIcT_ES5_PKc(ptr noundef nonnull align 8 dereferenceable(8) %31, ptr noundef @.str.4)
  br label %33

33:                                               ; preds = %24, %16
  ret void
}

; Function Attrs: mustprogress uwtable
define dso_local void @_ZN24cmInstallScriptGenerator21GenerateScriptActionsERSo23cmScriptGeneratorIndent(ptr noundef nonnull align 8 dereferenceable(249) %0, ptr noundef nonnull align 8 dereferenceable(8) %1, i32 %2) unnamed_addr #4 align 2 {
  %4 = alloca %class.cmScriptGeneratorIndent, align 4
  %5 = alloca ptr, align 8
  %6 = alloca ptr, align 8
  %7 = alloca %class.cmScriptGeneratorIndent, align 4
  %8 = alloca %class.cmScriptGeneratorIndent, align 4
  %9 = getelementptr inbounds %class.cmScriptGeneratorIndent, ptr %4, i32 0, i32 0
  store i32 %2, ptr %9, align 4
  store ptr %0, ptr %5, align 8
  store ptr %1, ptr %6, align 8
  %10 = load ptr, ptr %5, align 8
  %11 = getelementptr inbounds %class.cmInstallScriptGenerator, ptr %10, i32 0, i32 5
  %12 = load i8, ptr %11, align 8
  %13 = trunc i8 %12 to i1
  br i1 %13, label %14, label %22

14:                                               ; preds = %3
  %15 = getelementptr inbounds %class.cmScriptGenerator, ptr %10, i32 0, i32 5
  %16 = load i8, ptr %15, align 8
  %17 = trunc i8 %16 to i1
  br i1 %17, label %18, label %22

18:                                               ; preds = %14
  %19 = load ptr, ptr %6, align 8
  call void @llvm.memcpy.p0.p0.i64(ptr align 4 %7, ptr align 4 %4, i64 4, i1 false)
  %20 = getelementptr inbounds %class.cmScriptGeneratorIndent, ptr %7, i32 0, i32 0
  %21 = load i32, ptr %20, align 4
  call void @_ZN17cmScriptGenerator21GenerateScriptActionsERSo23cmScriptGeneratorIndent(ptr noundef nonnull align 8 dereferenceable(105) %10, ptr noundef nonnull align 8 dereferenceable(8) %19, i32 %21)
  br label %27

22:                                               ; preds = %14, %3
  %23 = load ptr, ptr %6, align 8
  call void @llvm.memcpy.p0.p0.i64(ptr align 4 %8, ptr align 4 %4, i64 4, i1 false)
  %24 = getelementptr inbounds %class.cmInstallScriptGenerator, ptr %10, i32 0, i32 1
  %25 = getelementptr inbounds %class.cmScriptGeneratorIndent, ptr %8, i32 0, i32 0
  %26 = load i32, ptr %25, align 4
  call void @_ZNK24cmInstallScriptGenerator20AddScriptInstallRuleERSo23cmScriptGeneratorIndentRKNSt7__cxx1112basic_stringIcSt11char_traitsIcESaIcEEE(ptr noundef nonnull align 8 dereferenceable(249) %10, ptr noundef nonnull align 8 dereferenceable(8) %23, i32 %26, ptr noundef nonnull align 8 dereferenceable(32) %24)
  br label %27

27:                                               ; preds = %22, %18
  ret void
}