; Function Attrs: mustprogress uwtable
define dso_local void @_ZN24cmInstallScriptGenerator21GenerateScriptActionsERSo23cmScriptGeneratorIndent(ptr noundef nonnull align 8 dereferenceable(249) %0, ptr noundef nonnull align 8 dereferenceable(8) %1, i32 %2) unnamed_addr #3 align 2 {
  %4 = getelementptr inbounds i8, ptr %0, i64 248
  %5 = load i8, ptr %4, align 8
  %6 = and i8 %5, 1
  %.not = icmp eq i8 %6, 0
  br i1 %.not, label %12, label %7

7:                                                ; preds = %3
  %8 = getelementptr inbounds i8, ptr %0, i64 104
  %9 = load i8, ptr %8, align 8
  %10 = and i8 %9, 1
  %.not6 = icmp eq i8 %10, 0
  br i1 %.not6, label %12, label %11

11:                                               ; preds = %7
  tail call void @_ZN17cmScriptGenerator21GenerateScriptActionsERSo23cmScriptGeneratorIndent(ptr noundef nonnull align 8 dereferenceable(105) %0, ptr noundef nonnull align 8 dereferenceable(8) %1, i32 %2)
  br label %27

12:                                               ; preds = %7, %3
  %13 = getelementptr inbounds i8, ptr %0, i64 200
  %14 = getelementptr inbounds i8, ptr %0, i64 232
  %15 = load i8, ptr %14, align 8
  %16 = and i8 %15, 1
  %.not.i = icmp eq i8 %16, 0
  %17 = icmp sgt i32 %2, 0
  br i1 %.not.i, label %21, label %18

18:                                               ; preds = %12
  br i1 %17, label %.lr.ph.i.i.i, label %_ZNK24cmInstallScriptGenerator20AddScriptInstallRuleERSo23cmScriptGeneratorIndentRKNSt7__cxx1112basic_stringIcSt11char_traitsIcESaIcEEE.exit

.lr.ph.i.i.i:                                     ; preds = %18, %.lr.ph.i.i.i
  %.03.i.i.i = phi i32 [ %20, %.lr.ph.i.i.i ], [ 0, %18 ]
  %19 = tail call noundef nonnull align 8 dereferenceable(8) ptr @_ZStlsISt11char_traitsIcEERSt13basic_ostreamIcT_ES5_PKc(ptr noundef nonnull align 8 dereferenceable(8) %1, ptr noundef nonnull @.str.5)
  %20 = add nuw nsw i32 %.03.i.i.i, 1
  %exitcond.not.i.i = icmp eq i32 %20, %2
  br i1 %exitcond.not.i.i, label %_ZNK24cmInstallScriptGenerator20AddScriptInstallRuleERSo23cmScriptGeneratorIndentRKNSt7__cxx1112basic_stringIcSt11char_traitsIcESaIcEEE.exit, label %.lr.ph.i.i.i, !llvm.loop !7

21:                                               ; preds = %12
  br i1 %17, label %.lr.ph.i.i8.i, label %_ZlsRSo23cmScriptGeneratorIndent.exit11.i

.lr.ph.i.i8.i:                                    ; preds = %21, %.lr.ph.i.i8.i
  %.03.i.i9.i = phi i32 [ %23, %.lr.ph.i.i8.i ], [ 0, %21 ]
  %22 = tail call noundef nonnull align 8 dereferenceable(8) ptr @_ZStlsISt11char_traitsIcEERSt13basic_ostreamIcT_ES5_PKc(ptr noundef nonnull align 8 dereferenceable(8) %1, ptr noundef nonnull @.str.5)
  %23 = add nuw nsw i32 %.03.i.i9.i, 1
  %exitcond.not.i10.i = icmp eq i32 %23, %2
  br i1 %exitcond.not.i10.i, label %_ZlsRSo23cmScriptGeneratorIndent.exit11.i, label %.lr.ph.i.i8.i, !llvm.loop !7

_ZlsRSo23cmScriptGeneratorIndent.exit11.i:        ; preds = %.lr.ph.i.i8.i, %21
  %24 = tail call noundef nonnull align 8 dereferenceable(8) ptr @_ZStlsISt11char_traitsIcEERSt13basic_ostreamIcT_ES5_PKc(ptr noundef nonnull align 8 dereferenceable(8) %1, ptr noundef nonnull @.str.3)
  br label %_ZNK24cmInstallScriptGenerator20AddScriptInstallRuleERSo23cmScriptGeneratorIndentRKNSt7__cxx1112basic_stringIcSt11char_traitsIcESaIcEEE.exit

_ZNK24cmInstallScriptGenerator20AddScriptInstallRuleERSo23cmScriptGeneratorIndentRKNSt7__cxx1112basic_stringIcSt11char_traitsIcESaIcEEE.exit: ; preds = %.lr.ph.i.i.i, %18, %_ZlsRSo23cmScriptGeneratorIndent.exit11.i
  %.sink12.i = phi ptr [ %24, %_ZlsRSo23cmScriptGeneratorIndent.exit11.i ], [ %1, %18 ], [ %1, %.lr.ph.i.i.i ]
  %.str.4.sink.i = phi ptr [ @.str.4, %_ZlsRSo23cmScriptGeneratorIndent.exit11.i ], [ @.str.2, %18 ], [ @.str.2, %.lr.ph.i.i.i ]
  %25 = tail call noundef nonnull align 8 dereferenceable(8) ptr @_ZStlsIcSt11char_traitsIcESaIcEERSt13basic_ostreamIT_T0_ES7_RKNSt7__cxx1112basic_stringIS4_S5_T1_EE(ptr noundef nonnull align 8 dereferenceable(8) %.sink12.i, ptr noundef nonnull align 8 dereferenceable(32) %13)
  %26 = tail call noundef nonnull align 8 dereferenceable(8) ptr @_ZStlsISt11char_traitsIcEERSt13basic_ostreamIcT_ES5_PKc(ptr noundef nonnull align 8 dereferenceable(8) %25, ptr noundef nonnull %.str.4.sink.i)
  br label %27

27:                                               ; preds = %_ZNK24cmInstallScriptGenerator20AddScriptInstallRuleERSo23cmScriptGeneratorIndentRKNSt7__cxx1112basic_stringIcSt11char_traitsIcESaIcEEE.exit, %11
  ret void
}